target datalayout = "e-m:e-p270:32:32-p271:32:32-p272:64:64-i64:64-i128:128-f80:128-n8:16:32:64-S128"
target triple = "x86_64-pc-linux-gnu"

%struct.expert_field = type { i32, i32 }
%struct._header_field_info = type { ptr, ptr, i32, i32, ptr, i64, ptr, i32, i32, i32, i32, ptr }
%struct._asn1_ctx_t = type { i32, i32, i8, ptr, ptr, ptr, ptr, ptr, %struct.anon, %struct.anon.2, %struct.anon.3, ptr }
%struct.anon = type { i32, i8, i8, i8, ptr, ptr, i32, i32, ptr, ptr, ptr, %union.anon }
%union.anon = type { %struct.anon.0 }
%struct.anon.0 = type { ptr }
%struct.anon.2 = type { ptr, ptr, ptr }
%struct.anon.3 = type { i32, i8, ptr, i32, i32, ptr, ptr, ptr, %union.anon.4 }
%union.anon.4 = type { %struct.anon.5 }
%struct.anon.5 = type { ptr }
%struct._oer_sequence_t = type { ptr, i32, i32, ptr }

@hf_oer_length_determinant = internal global i32 0, align 4
@ei_oer_not_decoded_yet = internal global %struct.expert_field zeroinitializer, align 4
@.str.13 = private unnamed_addr constant [45 x i8] c"sequence_of Occurrence %u octets not handled\00", align 1
@.str.14 = private unnamed_addr constant [6 x i8] c" item\00", align 1
@.str.15 = private unnamed_addr constant [7 x i8] c" items\00", align 1
@ett_oer_sequence_of_item = internal global i32 0, align 4
@.str.48 = private unnamed_addr constant [8 x i8] c"Item %d\00", align 1

; Function Attrs: nounwind uwtable
define internal i32 @dissect_oer_sequence_of_helper(ptr noundef %0, i32 noundef %1, ptr noundef %2, ptr noundef %3, ptr noundef %4, i32 noundef %5, i32 noundef %6) #0 {
  %8 = alloca ptr, align 8
  %9 = alloca i32, align 4
  %10 = alloca ptr, align 8
  %11 = alloca ptr, align 8
  %12 = alloca ptr, align 8
  %13 = alloca i32, align 4
  %14 = alloca i32, align 4
  %15 = alloca i32, align 4
  %16 = alloca i32, align 4
  %17 = alloca ptr, align 8
  %18 = alloca ptr, align 8
  store ptr %0, ptr %8, align 8
  store i32 %1, ptr %9, align 4
  store ptr %2, ptr %10, align 8
  store ptr %3, ptr %11, align 8
  store ptr %4, ptr %12, align 8
  store i32 %5, ptr %13, align 4
  store i32 %6, ptr %14, align 4
  store i32 0, ptr %15, align 4
  br label %19

19:                                               ; preds = %42, %7
  %20 = load i32, ptr %15, align 4
  %21 = load i32, ptr %14, align 4
  %22 = icmp ult i32 %20, %21
  br i1 %22, label %23, label %45

23:                                               ; preds = %19
  %24 = load i32, ptr %9, align 4
  store i32 %24, ptr %16, align 4
  %25 = load ptr, ptr %11, align 8
  %26 = load ptr, ptr %8, align 8
  %27 = load i32, ptr %9, align 4
  %28 = load i32, ptr @ett_oer_sequence_of_item, align 4
  %29 = load i32, ptr %15, align 4
  %30 = call ptr (ptr, ptr, i32, i32, i32, ptr, ptr, ...) @proto_tree_add_subtree_format(ptr noundef %25, ptr noundef %26, i32 noundef %27, i32 noundef 0, i32 noundef %28, ptr noundef %17, ptr noundef @.str.48, i32 noundef %29)
  store ptr %30, ptr %18, align 8
  %31 = load ptr, ptr %12, align 8
  %32 = load ptr, ptr %8, align 8
  %33 = load i32, ptr %9, align 4
  %34 = load ptr, ptr %10, align 8
  %35 = load ptr, ptr %18, align 8
  %36 = load i32, ptr %13, align 4
  %37 = call i32 %31(ptr noundef %32, i32 noundef %33, ptr noundef %34, ptr noundef %35, i32 noundef %36)
  store i32 %37, ptr %9, align 4
  %38 = load ptr, ptr %17, align 8
  %39 = load i32, ptr %9, align 4
  %40 = load i32, ptr %16, align 4
  %41 = sub i32 %39, %40
  call void @proto_item_set_len(ptr noundef %38, i32 noundef %41)
  br label %42

42:                                               ; preds = %23
  %43 = load i32, ptr %15, align 4
  %44 = add i32 %43, 1
  store i32 %44, ptr %15, align 4
  br label %19, !llvm.loop !14

45:                                               ; preds = %19
  %46 = load i32, ptr %9, align 4
  ret i32 %46
}

; Function Attrs: nounwind uwtable
define i32 @dissect_oer_sequence_of(ptr noundef %0, i32 noundef %1, ptr noundef %2, ptr noundef %3, i32 noundef %4, i32 noundef %5, ptr noundef %6) #0 {
  %8 = alloca i32, align 4
  %9 = alloca ptr, align 8
  %10 = alloca i32, align 4
  %11 = alloca ptr, align 8
  %12 = alloca ptr, align 8
  %13 = alloca i32, align 4
  %14 = alloca i32, align 4
  %15 = alloca ptr, align 8
  %16 = alloca ptr, align 8
  %17 = alloca ptr, align 8
  %18 = alloca i32, align 4
  %19 = alloca i32, align 4
  %20 = alloca i32, align 4
  %21 = alloca ptr, align 8
  store ptr %0, ptr %9, align 8
  store i32 %1, ptr %10, align 4
  store ptr %2, ptr %11, align 8
  store ptr %3, ptr %12, align 8
  store i32 %4, ptr %13, align 4
  store i32 %5, ptr %14, align 4
  store ptr %6, ptr %15, align 8
  %22 = load i32, ptr %10, align 4
  store i32 %22, ptr %18, align 4
  %23 = load ptr, ptr %9, align 8
  %24 = load i32, ptr %10, align 4
  %25 = load ptr, ptr %11, align 8
  %26 = load ptr, ptr %12, align 8
  %27 = load i32, ptr @hf_oer_length_determinant, align 4
  %28 = call i32 @dissect_oer_length_determinant(ptr noundef %23, i32 noundef %24, ptr noundef %25, ptr noundef %26, i32 noundef %27, ptr noundef %19)
  store i32 %28, ptr %10, align 4
  %29 = load i32, ptr %19, align 4
  switch i32 %29, label %48 [
    i32 1, label %30
    i32 2, label %35
    i32 3, label %40
    i32 4, label %44
  ]

30:                                               ; preds = %7
  %31 = load ptr, ptr %9, align 8
  %32 = load i32, ptr %10, align 4
  %33 = call zeroext i8 @tvb_get_guint8(ptr noundef %31, i32 noundef %32)
  %34 = zext i8 %33 to i32
  store i32 %34, ptr %20, align 4
  br label %59

35:                                               ; preds = %7
  %36 = load ptr, ptr %9, align 8
  %37 = load i32, ptr %10, align 4
  %38 = call zeroext i16 @tvb_get_ntohs(ptr noundef %36, i32 noundef %37)
  %39 = zext i16 %38 to i32
  store i32 %39, ptr %20, align 4
  br label %59

40:                                               ; preds = %7
  %41 = load ptr, ptr %9, align 8
  %42 = load i32, ptr %10, align 4
  %43 = call i32 @tvb_get_ntoh24(ptr noundef %41, i32 noundef %42)
  store i32 %43, ptr %20, align 4
  br label %59

44:                                               ; preds = %7
  %45 = load ptr, ptr %9, align 8
  %46 = load i32, ptr %10, align 4
  %47 = call i32 @tvb_get_ntohl(ptr noundef %45, i32 noundef %46)
  store i32 %47, ptr %20, align 4
  br label %59

48:                                               ; preds = %7
  %49 = load ptr, ptr %12, align 8
  %50 = load ptr, ptr %11, align 8
  %51 = getelementptr inbounds %struct._asn1_ctx_t, ptr %50, i32 0, i32 3
  %52 = load ptr, ptr %51, align 8
  %53 = load ptr, ptr %9, align 8
  %54 = load i32, ptr %10, align 4
  %55 = load i32, ptr %19, align 4
  %56 = call ptr (ptr, ptr, ptr, ptr, i32, i32, ptr, ...) @proto_tree_add_expert_format(ptr noundef %49, ptr noundef %52, ptr noundef @ei_oer_not_decoded_yet, ptr noundef %53, i32 noundef %54, i32 noundef 1, ptr noundef @.str.13, i32 noundef %55)
  %57 = load ptr, ptr %9, align 8
  %58 = call i32 @tvb_reported_length(ptr noundef %57)
  store i32 %58, ptr %8, align 4
  br label %154

59:                                               ; preds = %44, %40, %35, %30
  %60 = load i32, ptr %10, align 4
  %61 = load i32, ptr %19, align 4
  %62 = add i32 %60, %61
  store i32 %62, ptr %10, align 4
  %63 = load i32, ptr %13, align 4
  %64 = call ptr @proto_registrar_get_nth(i32 noundef %63)
  store ptr %64, ptr %21, align 8
  %65 = load ptr, ptr %21, align 8
  %66 = getelementptr inbounds %struct._header_field_info, ptr %65, i32 0, i32 2
  %67 = load i32, ptr %66, align 8
  %68 = icmp eq i32 %67, 3
  br i1 %68, label %114, label %69

69:                                               ; preds = %59
  %70 = load ptr, ptr %21, align 8
  %71 = getelementptr inbounds %struct._header_field_info, ptr %70, i32 0, i32 2
  %72 = load i32, ptr %71, align 8
  %73 = icmp eq i32 %72, 4
  br i1 %73, label %114, label %74

74:                                               ; preds = %69
  %75 = load ptr, ptr %21, align 8
  %76 = getelementptr inbounds %struct._header_field_info, ptr %75, i32 0, i32 2
  %77 = load i32, ptr %76, align 8
  %78 = icmp eq i32 %77, 5
  br i1 %78, label %114, label %79

79:                                               ; preds = %74
  %80 = load ptr, ptr %21, align 8
  %81 = getelementptr inbounds %struct._header_field_info, ptr %80, i32 0, i32 2
  %82 = load i32, ptr %81, align 8
  %83 = icmp eq i32 %82, 6
  br i1 %83, label %114, label %84

84:                                               ; preds = %79
  %85 = load ptr, ptr %21, align 8
  %86 = getelementptr inbounds %struct._header_field_info, ptr %85, i32 0, i32 2
  %87 = load i32, ptr %86, align 8
  %88 = icmp eq i32 %87, 7
  br i1 %88, label %114, label %89

89:                                               ; preds = %84
  %90 = load ptr, ptr %21, align 8
  %91 = getelementptr inbounds %struct._header_field_info, ptr %90, i32 0, i32 2
  %92 = load i32, ptr %91, align 8
  %93 = icmp eq i32 %92, 35
  br i1 %93, label %114, label %94

94:                                               ; preds = %89
  %95 = load ptr, ptr %21, align 8
  %96 = getelementptr inbounds %struct._header_field_info, ptr %95, i32 0, i32 2
  %97 = load i32, ptr %96, align 8
  %98 = icmp eq i32 %97, 8
  br i1 %98, label %114, label %99

99:                                               ; preds = %94
  %100 = load ptr, ptr %21, align 8
  %101 = getelementptr inbounds %struct._header_field_info, ptr %100, i32 0, i32 2
  %102 = load i32, ptr %101, align 8
  %103 = icmp eq i32 %102, 9
  br i1 %103, label %114, label %104

104:                                              ; preds = %99
  %105 = load ptr, ptr %21, align 8
  %106 = getelementptr inbounds %struct._header_field_info, ptr %105, i32 0, i32 2
  %107 = load i32, ptr %106, align 8
  %108 = icmp eq i32 %107, 10
  br i1 %108, label %114, label %109

109:                                              ; preds = %104
  %110 = load ptr, ptr %21, align 8
  %111 = getelementptr inbounds %struct._header_field_info, ptr %110, i32 0, i32 2
  %112 = load i32, ptr %111, align 8
  %113 = icmp eq i32 %112, 11
  br i1 %113, label %114, label %126

114:                                              ; preds = %109, %104, %99, %94, %89, %84, %79, %74, %69, %59
  %115 = load ptr, ptr %12, align 8
  %116 = load i32, ptr %13, align 4
  %117 = load ptr, ptr %9, align 8
  %118 = load i32, ptr %18, align 4
  %119 = load i32, ptr %19, align 4
  %120 = load i32, ptr %20, align 4
  %121 = call ptr @proto_tree_add_uint(ptr noundef %115, i32 noundef %116, ptr noundef %117, i32 noundef %118, i32 noundef %119, i32 noundef %120)
  store ptr %121, ptr %16, align 8
  %122 = load ptr, ptr %16, align 8
  %123 = load i32, ptr %20, align 4
  %124 = icmp eq i32 %123, 1
  %125 = select i1 %124, ptr @.str.14, ptr @.str.15
  call void (ptr, ptr, ...) @proto_item_append_text(ptr noundef %122, ptr noundef %125)
  br label %132

126:                                              ; preds = %109
  %127 = load ptr, ptr %12, align 8
  %128 = load i32, ptr %13, align 4
  %129 = load ptr, ptr %9, align 8
  %130 = load i32, ptr %18, align 4
  %131 = call ptr @proto_tree_add_item(ptr noundef %127, i32 noundef %128, ptr noundef %129, i32 noundef %130, i32 noundef 0, i32 noundef 0)
  store ptr %131, ptr %16, align 8
  br label %132

132:                                              ; preds = %126, %114
  %133 = load ptr, ptr %16, align 8
  %134 = load i32, ptr %14, align 4
  %135 = call ptr @proto_item_add_subtree(ptr noundef %133, i32 noundef %134)
  store ptr %135, ptr %17, align 8
  %136 = load ptr, ptr %9, align 8
  %137 = load i32, ptr %10, align 4
  %138 = load ptr, ptr %11, align 8
  %139 = load ptr, ptr %17, align 8
  %140 = load ptr, ptr %15, align 8
  %141 = getelementptr inbounds %struct._oer_sequence_t, ptr %140, i32 0, i32 3
  %142 = load ptr, ptr %141, align 8
  %143 = load ptr, ptr %15, align 8
  %144 = getelementptr inbounds %struct._oer_sequence_t, ptr %143, i32 0, i32 0
  %145 = load ptr, ptr %144, align 8
  %146 = load i32, ptr %145, align 4
  %147 = load i32, ptr %20, align 4
  %148 = call i32 @dissect_oer_sequence_of_helper(ptr noundef %136, i32 noundef %137, ptr noundef %138, ptr noundef %139, ptr noundef %142, i32 noundef %146, i32 noundef %147)
  store i32 %148, ptr %10, align 4
  %149 = load ptr, ptr %16, align 8
  %150 = load i32, ptr %10, align 4
  %151 = load i32, ptr %18, align 4
  %152 = sub i32 %150, %151
  call void @proto_item_set_len(ptr noundef %149, i32 noundef %152)
  %153 = load i32, ptr %10, align 4
  store i32 %153, ptr %8, align 4
  br label %154

154:                                              ; preds = %132, %48
  %155 = load i32, ptr %8, align 4
  ret i32 %155
}