; Function Attrs: nounwind uwtable
define i32 @dissect_oer_sequence_of(ptr noundef %0, i32 noundef %1, ptr noundef %2, ptr noundef %3, i32 noundef %4, i32 noundef %5, ptr noundef readonly captures(none) %6) local_unnamed_addr #0 {
  %8 = alloca ptr, align 8
  %9 = alloca i32, align 4
  %10 = load i32, ptr @hf_oer_length_determinant, align 4
  %11 = call fastcc i32 @dissect_oer_length_determinant(ptr noundef %0, i32 noundef %1, ptr noundef %2, ptr noundef %3, i32 noundef %10, ptr noundef %9)
  %12 = load i32, ptr %9, align 4
  switch i32 %12, label %23 [
    i32 1, label %13
    i32 2, label %16
    i32 3, label %19
    i32 4, label %21
  ]

13:                                               ; preds = %7
  %14 = tail call zeroext i8 @tvb_get_guint8(ptr noundef %0, i32 noundef %11) #8
  %15 = zext i8 %14 to i32
  br label %28

16:                                               ; preds = %7
  %17 = tail call zeroext i16 @tvb_get_ntohs(ptr noundef %0, i32 noundef %11) #8
  %18 = zext i16 %17 to i32
  br label %28

19:                                               ; preds = %7
  %20 = tail call i32 @tvb_get_ntoh24(ptr noundef %0, i32 noundef %11) #8
  br label %28

21:                                               ; preds = %7
  %22 = tail call i32 @tvb_get_ntohl(ptr noundef %0, i32 noundef %11) #8
  br label %28

23:                                               ; preds = %7
  %24 = getelementptr inbounds nuw i8, ptr %2, i64 16
  %25 = load ptr, ptr %24, align 8
  %26 = tail call ptr (ptr, ptr, ptr, ptr, i32, i32, ptr, ...) @proto_tree_add_expert_format(ptr noundef %3, ptr noundef %25, ptr noundef nonnull @ei_oer_not_decoded_yet, ptr noundef %0, i32 noundef %11, i32 noundef 1, ptr noundef nonnull @.str.13, i32 noundef %12) #8
  %27 = tail call i32 @tvb_reported_length(ptr noundef %0) #8
  br label %52

28:                                               ; preds = %21, %19, %16, %13
  %.054 = phi i32 [ %22, %21 ], [ %20, %19 ], [ %18, %16 ], [ %15, %13 ]
  %29 = add i32 %12, %11
  %30 = tail call ptr @proto_registrar_get_nth(i32 noundef %4) #8
  %31 = getelementptr inbounds nuw i8, ptr %30, i64 16
  %32 = load i32, ptr %31, align 8
  switch i32 %32, label %37 [
    i32 3, label %33
    i32 4, label %33
    i32 5, label %33
    i32 6, label %33
    i32 7, label %33
    i32 35, label %33
    i32 8, label %33
    i32 9, label %33
    i32 10, label %33
    i32 11, label %33
  ]

33:                                               ; preds = %28, %28, %28, %28, %28, %28, %28, %28, %28, %28
  %34 = tail call ptr @proto_tree_add_uint(ptr noundef %3, i32 noundef %4, ptr noundef %0, i32 noundef %1, i32 noundef %12, i32 noundef %.054) #8
  %35 = icmp eq i32 %.054, 1
  %36 = select i1 %35, ptr @.str.14, ptr @.str.15
  tail call void (ptr, ptr, ...) @proto_item_append_text(ptr noundef %34, ptr noundef nonnull %36) #8
  br label %39

37:                                               ; preds = %28
  %38 = tail call ptr @proto_tree_add_item(ptr noundef %3, i32 noundef %4, ptr noundef %0, i32 noundef %1, i32 noundef 0, i32 noundef 0) #8
  br label %39

39:                                               ; preds = %37, %33
  %.055 = phi ptr [ %34, %33 ], [ %38, %37 ]
  %40 = tail call ptr @proto_item_add_subtree(ptr noundef %.055, i32 noundef %5) #8
  %41 = getelementptr inbounds nuw i8, ptr %6, i64 16
  %42 = load ptr, ptr %41, align 8
  %43 = load ptr, ptr %6, align 8
  %44 = load i32, ptr %43, align 4
  call void @llvm.lifetime.start.p0(i64 8, ptr nonnull %8)
  %.not.i = icmp eq i32 %.054, 0
  br i1 %.not.i, label %dissect_oer_sequence_of_helper.exit, label %.lr.ph.i

.lr.ph.i:                                         ; preds = %39, %.lr.ph.i
  %.018.i = phi i32 [ %47, %.lr.ph.i ], [ %29, %39 ]
  %.01617.i = phi i32 [ %50, %.lr.ph.i ], [ 0, %39 ]
  %45 = load i32, ptr @ett_oer_sequence_of_item, align 4
  %46 = call ptr (ptr, ptr, i32, i32, i32, ptr, ptr, ...) @proto_tree_add_subtree_format(ptr noundef %40, ptr noundef %0, i32 noundef %.018.i, i32 noundef 0, i32 noundef %45, ptr noundef nonnull %8, ptr noundef nonnull @.str.48, i32 noundef %.01617.i) #8
  %47 = call i32 %42(ptr noundef %0, i32 noundef %.018.i, ptr noundef %2, ptr noundef %46, i32 noundef %44) #8
  %48 = load ptr, ptr %8, align 8
  %49 = sub i32 %47, %.018.i
  call void @proto_item_set_len(ptr noundef %48, i32 noundef %49) #8
  %50 = add nuw i32 %.01617.i, 1
  %exitcond.not.i = icmp eq i32 %50, %.054
  br i1 %exitcond.not.i, label %dissect_oer_sequence_of_helper.exit, label %.lr.ph.i, !llvm.loop !14

dissect_oer_sequence_of_helper.exit:              ; preds = %.lr.ph.i, %39
  %.0.lcssa.i = phi i32 [ %29, %39 ], [ %47, %.lr.ph.i ]
  call void @llvm.lifetime.end.p0(i64 8, ptr nonnull %8)
  %51 = sub i32 %.0.lcssa.i, %1
  call void @proto_item_set_len(ptr noundef %.055, i32 noundef %51) #8
  br label %52

52:                                               ; preds = %dissect_oer_sequence_of_helper.exit, %23
  %.0 = phi i32 [ %27, %23 ], [ %.0.lcssa.i, %dissect_oer_sequence_of_helper.exit ]
  ret i32 %.0
}